target datalayout = "e-m:e-p270:32:32-p271:32:32-p272:64:64-i64:64-i128:128-f80:128-n8:16:32:64-S128"
target triple = "x86_64-pc-linux-gnu"

%struct.gf_s = type { [8 x i64] }

; Function Attrs: alwaysinline nounwind uwtable
define internal void @gf_weak_reduce(ptr noundef %0) #2 {
  %2 = alloca ptr, align 8
  %3 = alloca i64, align 8
  %4 = alloca i64, align 8
  %5 = alloca i32, align 4
  store ptr %0, ptr %2, align 8, !tbaa !8
  call void @llvm.lifetime.start.p0(i64 8, ptr %3) #6
  store i64 72057594037927935, ptr %3, align 8, !tbaa !14
  call void @llvm.lifetime.start.p0(i64 8, ptr %4) #6
  %6 = load ptr, ptr %2, align 8, !tbaa !8
  %7 = getelementptr inbounds nuw %struct.gf_s, ptr %6, i32 0, i32 0
  %8 = getelementptr inbounds nuw [8 x i64], ptr %7, i64 0, i64 7
  %9 = load i64, ptr %8, align 8, !tbaa !14
  %10 = lshr i64 %9, 56
  store i64 %10, ptr %4, align 8, !tbaa !14
  call void @llvm.lifetime.start.p0(i64 4, ptr %5) #6
  %11 = load i64, ptr %4, align 8, !tbaa !14
  %12 = load ptr, ptr %2, align 8, !tbaa !8
  %13 = getelementptr inbounds nuw %struct.gf_s, ptr %12, i32 0, i32 0
  %14 = getelementptr inbounds nuw [8 x i64], ptr %13, i64 0, i64 4
  %15 = load i64, ptr %14, align 16, !tbaa !14
  %16 = add i64 %15, %11
  store i64 %16, ptr %14, align 16, !tbaa !14
  store i32 7, ptr %5, align 4, !tbaa !10
  br label %17

17:                                               ; preds = %43, %1
  %18 = load i32, ptr %5, align 4, !tbaa !10
  %19 = icmp ugt i32 %18, 0
  br i1 %19, label %20, label %46

20:                                               ; preds = %17
  %21 = load ptr, ptr %2, align 8, !tbaa !8
  %22 = getelementptr inbounds nuw %struct.gf_s, ptr %21, i32 0, i32 0
  %23 = load i32, ptr %5, align 4, !tbaa !10
  %24 = zext i32 %23 to i64
  %25 = getelementptr inbounds nuw [8 x i64], ptr %22, i64 0, i64 %24
  %26 = load i64, ptr %25, align 8, !tbaa !14
  %27 = load i64, ptr %3, align 8, !tbaa !14
  %28 = and i64 %26, %27
  %29 = load ptr, ptr %2, align 8, !tbaa !8
  %30 = getelementptr inbounds nuw %struct.gf_s, ptr %29, i32 0, i32 0
  %31 = load i32, ptr %5, align 4, !tbaa !10
  %32 = sub i32 %31, 1
  %33 = zext i32 %32 to i64
  %34 = getelementptr inbounds nuw [8 x i64], ptr %30, i64 0, i64 %33
  %35 = load i64, ptr %34, align 8, !tbaa !14
  %36 = lshr i64 %35, 56
  %37 = add i64 %28, %36
  %38 = load ptr, ptr %2, align 8, !tbaa !8
  %39 = getelementptr inbounds nuw %struct.gf_s, ptr %38, i32 0, i32 0
  %40 = load i32, ptr %5, align 4, !tbaa !10
  %41 = zext i32 %40 to i64
  %42 = getelementptr inbounds nuw [8 x i64], ptr %39, i64 0, i64 %41
  store i64 %37, ptr %42, align 8, !tbaa !14
  br label %43

43:                                               ; preds = %20
  %44 = load i32, ptr %5, align 4, !tbaa !10
  %45 = add i32 %44, -1
  store i32 %45, ptr %5, align 4, !tbaa !10
  br label %17, !llvm.loop !24

46:                                               ; preds = %17
  %47 = load ptr, ptr %2, align 8, !tbaa !8
  %48 = getelementptr inbounds nuw %struct.gf_s, ptr %47, i32 0, i32 0
  %49 = getelementptr inbounds [8 x i64], ptr %48, i64 0, i64 0
  %50 = load i64, ptr %49, align 16, !tbaa !14
  %51 = load i64, ptr %3, align 8, !tbaa !14
  %52 = and i64 %50, %51
  %53 = load i64, ptr %4, align 8, !tbaa !14
  %54 = add i64 %52, %53
  %55 = load ptr, ptr %2, align 8, !tbaa !8
  %56 = getelementptr inbounds nuw %struct.gf_s, ptr %55, i32 0, i32 0
  %57 = getelementptr inbounds [8 x i64], ptr %56, i64 0, i64 0
  store i64 %54, ptr %57, align 16, !tbaa !14
  call void @llvm.lifetime.end.p0(i64 4, ptr %5) #6
  call void @llvm.lifetime.end.p0(i64 8, ptr %4) #6
  call void @llvm.lifetime.end.p0(i64 8, ptr %3) #6
  ret void
}

; Function Attrs: alwaysinline nounwind uwtable
define internal void @gf_add_RAW(ptr noundef %0, ptr noundef %1, ptr noundef %2) #2 {
  %4 = alloca ptr, align 8
  %5 = alloca ptr, align 8
  %6 = alloca ptr, align 8
  %7 = alloca i32, align 4
  store ptr %0, ptr %4, align 8, !tbaa !8
  store ptr %1, ptr %5, align 8, !tbaa !8
  store ptr %2, ptr %6, align 8, !tbaa !8
  call void @llvm.lifetime.start.p0(i64 4, ptr %7) #6
  store i32 0, ptr %7, align 4, !tbaa !10
  br label %8

8:                                                ; preds = %31, %3
  %9 = load i32, ptr %7, align 4, !tbaa !10
  %10 = zext i32 %9 to i64
  %11 = icmp ult i64 %10, 8
  br i1 %11, label %12, label %34

12:                                               ; preds = %8
  %13 = load ptr, ptr %5, align 8, !tbaa !8
  %14 = getelementptr inbounds nuw %struct.gf_s, ptr %13, i32 0, i32 0
  %15 = load i32, ptr %7, align 4, !tbaa !10
  %16 = zext i32 %15 to i64
  %17 = getelementptr inbounds nuw [8 x i64], ptr %14, i64 0, i64 %16
  %18 = load i64, ptr %17, align 8, !tbaa !14
  %19 = load ptr, ptr %6, align 8, !tbaa !8
  %20 = getelementptr inbounds nuw %struct.gf_s, ptr %19, i32 0, i32 0
  %21 = load i32, ptr %7, align 4, !tbaa !10
  %22 = zext i32 %21 to i64
  %23 = getelementptr inbounds nuw [8 x i64], ptr %20, i64 0, i64 %22
  %24 = load i64, ptr %23, align 8, !tbaa !14
  %25 = add i64 %18, %24
  %26 = load ptr, ptr %4, align 8, !tbaa !8
  %27 = getelementptr inbounds nuw %struct.gf_s, ptr %26, i32 0, i32 0
  %28 = load i32, ptr %7, align 4, !tbaa !10
  %29 = zext i32 %28 to i64
  %30 = getelementptr inbounds nuw [8 x i64], ptr %27, i64 0, i64 %29
  store i64 %25, ptr %30, align 8, !tbaa !14
  br label %31

31:                                               ; preds = %12
  %32 = load i32, ptr %7, align 4, !tbaa !10
  %33 = add i32 %32, 1
  store i32 %33, ptr %7, align 4, !tbaa !10
  br label %8, !llvm.loop !26

34:                                               ; preds = %8
  %35 = load ptr, ptr %4, align 8, !tbaa !8
  call void @gf_weak_reduce(ptr noundef %35)
  call void @llvm.lifetime.end.p0(i64 4, ptr %7) #6
  ret void
}

; Function Attrs: nounwind uwtable
define void @gf_add(ptr noundef %0, ptr noundef %1, ptr noundef %2) #0 {
  %4 = alloca ptr, align 8
  %5 = alloca ptr, align 8
  %6 = alloca ptr, align 8
  store ptr %0, ptr %4, align 8, !tbaa !8
  store ptr %1, ptr %5, align 8, !tbaa !8
  store ptr %2, ptr %6, align 8, !tbaa !8
  %7 = load ptr, ptr %4, align 8, !tbaa !8
  %8 = load ptr, ptr %5, align 8, !tbaa !8
  %9 = load ptr, ptr %6, align 8, !tbaa !8
  call void @gf_add_RAW(ptr noundef %7, ptr noundef %8, ptr noundef %9)
  %10 = load ptr, ptr %4, align 8, !tbaa !8
  call void @gf_weak_reduce(ptr noundef %10)
  ret void
}