; Function Attrs: nofree norecurse nosync nounwind memory(argmem: readwrite) uwtable
define void @gf_add(ptr noundef captures(none) %0, ptr noundef readonly captures(none) %1, ptr noundef readonly captures(none) %2) local_unnamed_addr #0 {
  br label %4

4:                                                ; preds = %3, %4
  %indvars.iv = phi i64 [ 0, %3 ], [ %indvars.iv.next, %4 ]
  %5 = getelementptr inbounds nuw [8 x i64], ptr %1, i64 0, i64 %indvars.iv
  %6 = load i64, ptr %5, align 8, !tbaa !7
  %7 = getelementptr inbounds nuw [8 x i64], ptr %2, i64 0, i64 %indvars.iv
  %8 = load i64, ptr %7, align 8, !tbaa !7
  %9 = add i64 %8, %6
  %10 = getelementptr inbounds nuw [8 x i64], ptr %0, i64 0, i64 %indvars.iv
  store i64 %9, ptr %10, align 8, !tbaa !7
  %indvars.iv.next = add nuw nsw i64 %indvars.iv, 1
  %exitcond.not = icmp eq i64 %indvars.iv.next, 8
  br i1 %exitcond.not, label %11, label %4, !llvm.loop !14

11:                                               ; preds = %4
  %12 = getelementptr inbounds nuw i8, ptr %0, i64 56
  %13 = load i64, ptr %12, align 8, !tbaa !7
  %14 = lshr i64 %13, 56
  %15 = getelementptr inbounds nuw i8, ptr %0, i64 32
  %16 = load i64, ptr %15, align 16, !tbaa !7
  %17 = add i64 %16, %14
  store i64 %17, ptr %15, align 16, !tbaa !7
  br label %18

18:                                               ; preds = %11, %18
  %19 = phi i64 [ %13, %11 ], [ %23, %18 ]
  %indvars.iv9 = phi i64 [ 7, %11 ], [ %indvars.iv.next10, %18 ]
  %20 = getelementptr inbounds nuw [8 x i64], ptr %0, i64 0, i64 %indvars.iv9
  %21 = and i64 %19, 72057594037927935
  %indvars.iv.next10 = add nsw i64 %indvars.iv9, -1
  %22 = getelementptr inbounds nuw [8 x i64], ptr %0, i64 0, i64 %indvars.iv.next10
  %23 = load i64, ptr %22, align 8, !tbaa !7
  %24 = lshr i64 %23, 56
  %25 = add nuw nsw i64 %24, %21
  store i64 %25, ptr %20, align 8, !tbaa !7
  %.not.i.i = icmp eq i64 %indvars.iv.next10, 0
  br i1 %.not.i.i, label %gf_add_RAW.exit, label %18, !llvm.loop !9

gf_add_RAW.exit:                                  ; preds = %18
  %26 = load i64, ptr %0, align 16, !tbaa !7
  %27 = and i64 %26, 72057594037927935
  %28 = add nuw nsw i64 %27, %14
  store i64 %28, ptr %0, align 16, !tbaa !7
  %29 = load i64, ptr %12, align 8, !tbaa !7
  %30 = lshr i64 %29, 56
  %31 = load i64, ptr %15, align 16, !tbaa !7
  %32 = add i64 %31, %30
  store i64 %32, ptr %15, align 16, !tbaa !7
  br label %33

33:                                               ; preds = %gf_add_RAW.exit, %33
  %34 = phi i64 [ %29, %gf_add_RAW.exit ], [ %38, %33 ]
  %indvars.iv12 = phi i64 [ 7, %gf_add_RAW.exit ], [ %indvars.iv.next13, %33 ]
  %35 = getelementptr inbounds nuw [8 x i64], ptr %0, i64 0, i64 %indvars.iv12
  %36 = and i64 %34, 72057594037927935
  %indvars.iv.next13 = add nsw i64 %indvars.iv12, -1
  %37 = getelementptr inbounds nuw [8 x i64], ptr %0, i64 0, i64 %indvars.iv.next13
  %38 = load i64, ptr %37, align 8, !tbaa !7
  %39 = lshr i64 %38, 56
  %40 = add nuw nsw i64 %39, %36
  store i64 %40, ptr %35, align 8, !tbaa !7
  %.not.i = icmp eq i64 %indvars.iv.next13, 0
  br i1 %.not.i, label %gf_weak_reduce.exit, label %33, !llvm.loop !9

gf_weak_reduce.exit:                              ; preds = %33
  %41 = and i64 %28, 72057594037927935
  %42 = add nuw nsw i64 %41, %30
  store i64 %42, ptr %0, align 16, !tbaa !7
  ret void
}